target datalayout = "e-m:e-p270:32:32-p271:32:32-p272:64:64-i64:64-i128:128-f80:128-n8:16:32:64-S128"
target triple = "x86_64-pc-linux-gnu"

@.str = private unnamed_addr constant [17 x i8] c"\00\00\00\00\00\00\00\00\1E\0F\0F\0F\00\00\00\00\00", align 1
@.str.1 = private unnamed_addr constant [17 x i8] c" 000000000000\1000\00", align 1
@_ZL15utf8_errorValue = internal constant [6 x i32] [i32 21, i32 159, i32 65535, i32 1114111, i32 0, i32 0], align 16

; Function Attrs: mustprogress nounwind uwtable
define internal noundef i32 @_ZL10errorValueia(i32 noundef %0, i8 noundef signext %1) #2 {
  %3 = alloca i32, align 4
  %4 = alloca i32, align 4
  %5 = alloca i8, align 1
  store i32 %0, ptr %4, align 4, !tbaa !10
  store i8 %1, ptr %5, align 1, !tbaa !12
  %6 = load i8, ptr %5, align 1, !tbaa !12
  %7 = sext i8 %6 to i32
  %8 = icmp sge i32 %7, 0
  br i1 %8, label %9, label %14

9:                                                ; preds = %2
  %10 = load i32, ptr %4, align 4, !tbaa !10
  %11 = sext i32 %10 to i64
  %12 = getelementptr inbounds [6 x i32], ptr @_ZL15utf8_errorValue, i64 0, i64 %11
  %13 = load i32, ptr %12, align 4, !tbaa !10
  store i32 %13, ptr %3, align 4
  br label %20

14:                                               ; preds = %2
  %15 = load i8, ptr %5, align 1, !tbaa !12
  %16 = sext i8 %15 to i32
  %17 = icmp eq i32 %16, -3
  br i1 %17, label %18, label %19

18:                                               ; preds = %14
  store i32 65533, ptr %3, align 4
  br label %20

19:                                               ; preds = %14
  store i32 -1, ptr %3, align 4
  br label %20

20:                                               ; preds = %19, %18, %9
  %21 = load i32, ptr %3, align 4
  ret i32 %21
}

; Function Attrs: mustprogress uwtable
define i32 @utf8_nextCharSafeBody_77(ptr noundef %0, ptr noundef %1, i32 noundef %2, i32 noundef %3, i8 noundef signext %4) #0 {
  %6 = alloca i32, align 4
  %7 = alloca ptr, align 8
  %8 = alloca ptr, align 8
  %9 = alloca i32, align 4
  %10 = alloca i32, align 4
  %11 = alloca i8, align 1
  %12 = alloca i32, align 4
  %13 = alloca i8, align 1
  %14 = alloca i8, align 1
  %15 = alloca i8, align 1
  %16 = alloca i32, align 4
  %17 = alloca i8, align 1
  %18 = alloca i8, align 1
  %19 = alloca i8, align 1
  %20 = alloca i8, align 1
  %21 = alloca i8, align 1
  store ptr %0, ptr %7, align 8, !tbaa !3
  store ptr %1, ptr %8, align 8, !tbaa !8
  store i32 %2, ptr %9, align 4, !tbaa !10
  store i32 %3, ptr %10, align 4, !tbaa !10
  store i8 %4, ptr %11, align 1, !tbaa !12
  call void @llvm.lifetime.start.p0(i64 4, ptr %12) #3
  %22 = load ptr, ptr %8, align 8, !tbaa !8
  %23 = load i32, ptr %22, align 4, !tbaa !10
  store i32 %23, ptr %12, align 4, !tbaa !10
  %24 = load i32, ptr %12, align 4, !tbaa !10
  %25 = load i32, ptr %9, align 4, !tbaa !10
  %26 = icmp eq i32 %24, %25
  br i1 %26, label %30, label %27

27:                                               ; preds = %5
  %28 = load i32, ptr %10, align 4, !tbaa !10
  %29 = icmp sgt i32 %28, 244
  br i1 %29, label %30, label %31

30:                                               ; preds = %27, %5
  br label %294

31:                                               ; preds = %27
  %32 = load i32, ptr %10, align 4, !tbaa !10
  %33 = icmp sge i32 %32, 240
  br i1 %33, label %34, label %128

34:                                               ; preds = %31
  call void @llvm.lifetime.start.p0(i64 1, ptr %13) #3
  %35 = load ptr, ptr %7, align 8, !tbaa !3
  %36 = load i32, ptr %12, align 4, !tbaa !10
  %37 = sext i32 %36 to i64
  %38 = getelementptr inbounds i8, ptr %35, i64 %37
  %39 = load i8, ptr %38, align 1, !tbaa !12
  store i8 %39, ptr %13, align 1, !tbaa !12
  call void @llvm.lifetime.start.p0(i64 1, ptr %14) #3
  call void @llvm.lifetime.start.p0(i64 1, ptr %15) #3
  %40 = load i32, ptr %10, align 4, !tbaa !10
  %41 = and i32 %40, 7
  store i32 %41, ptr %10, align 4, !tbaa !10
  %42 = load i8, ptr %13, align 1, !tbaa !12
  %43 = zext i8 %42 to i32
  %44 = ashr i32 %43, 4
  %45 = sext i32 %44 to i64
  %46 = getelementptr inbounds [17 x i8], ptr @.str, i64 0, i64 %45
  %47 = load i8, ptr %46, align 1, !tbaa !12
  %48 = sext i8 %47 to i32
  %49 = load i32, ptr %10, align 4, !tbaa !10
  %50 = and i32 %49, 7
  %51 = shl i32 1, %50
  %52 = and i32 %48, %51
  %53 = icmp ne i32 %52, 0
  br i1 %53, label %54, label %124

54:                                               ; preds = %34
  %55 = load i32, ptr %12, align 4, !tbaa !10
  %56 = add nsw i32 %55, 1
  store i32 %56, ptr %12, align 4, !tbaa !10
  %57 = load i32, ptr %9, align 4, !tbaa !10
  %58 = icmp ne i32 %56, %57
  br i1 %58, label %59, label %124

59:                                               ; preds = %54
  %60 = load ptr, ptr %7, align 8, !tbaa !3
  %61 = load i32, ptr %12, align 4, !tbaa !10
  %62 = sext i32 %61 to i64
  %63 = getelementptr inbounds i8, ptr %60, i64 %62
  %64 = load i8, ptr %63, align 1, !tbaa !12
  %65 = zext i8 %64 to i32
  %66 = sub nsw i32 %65, 128
  %67 = trunc i32 %66 to i8
  store i8 %67, ptr %14, align 1, !tbaa !12
  %68 = zext i8 %67 to i32
  %69 = icmp sle i32 %68, 63
  br i1 %69, label %70, label %124

70:                                               ; preds = %59
  %71 = load i32, ptr %12, align 4, !tbaa !10
  %72 = add nsw i32 %71, 1
  store i32 %72, ptr %12, align 4, !tbaa !10
  %73 = load i32, ptr %9, align 4, !tbaa !10
  %74 = icmp ne i32 %72, %73
  br i1 %74, label %75, label %124

75:                                               ; preds = %70
  %76 = load ptr, ptr %7, align 8, !tbaa !3
  %77 = load i32, ptr %12, align 4, !tbaa !10
  %78 = sext i32 %77 to i64
  %79 = getelementptr inbounds i8, ptr %76, i64 %78
  %80 = load i8, ptr %79, align 1, !tbaa !12
  %81 = zext i8 %80 to i32
  %82 = sub nsw i32 %81, 128
  %83 = trunc i32 %82 to i8
  store i8 %83, ptr %15, align 1, !tbaa !12
  %84 = zext i8 %83 to i32
  %85 = icmp sle i32 %84, 63
  br i1 %85, label %86, label %124

86:                                               ; preds = %75
  %87 = load i32, ptr %12, align 4, !tbaa !10
  %88 = add nsw i32 %87, 1
  store i32 %88, ptr %12, align 4, !tbaa !10
  %89 = load i32, ptr %10, align 4, !tbaa !10
  %90 = shl i32 %89, 18
  %91 = load i8, ptr %13, align 1, !tbaa !12
  %92 = zext i8 %91 to i32
  %93 = and i32 %92, 63
  %94 = shl i32 %93, 12
  %95 = or i32 %90, %94
  %96 = load i8, ptr %14, align 1, !tbaa !12
  %97 = zext i8 %96 to i32
  %98 = shl i32 %97, 6
  %99 = or i32 %95, %98
  %100 = load i8, ptr %15, align 1, !tbaa !12
  %101 = zext i8 %100 to i32
  %102 = or i32 %99, %101
  store i32 %102, ptr %10, align 4, !tbaa !10
  %103 = load i8, ptr %11, align 1, !tbaa !12
  %104 = sext i8 %103 to i32
  %105 = icmp sle i32 %104, 0
  br i1 %105, label %119, label %106

106:                                              ; preds = %86
  %107 = load i32, ptr %10, align 4, !tbaa !10
  %108 = icmp sge i32 %107, 64976
  br i1 %108, label %109, label %119

109:                                              ; preds = %106
  %110 = load i32, ptr %10, align 4, !tbaa !10
  %111 = icmp sle i32 %110, 65007
  br i1 %111, label %116, label %112

112:                                              ; preds = %109
  %113 = load i32, ptr %10, align 4, !tbaa !10
  %114 = and i32 %113, 65534
  %115 = icmp eq i32 %114, 65534
  br i1 %115, label %116, label %119

116:                                              ; preds = %112, %109
  %117 = load i32, ptr %10, align 4, !tbaa !10
  %118 = icmp sle i32 %117, 1114111
  br i1 %118, label %123, label %119

119:                                              ; preds = %116, %112, %106, %86
  %120 = load i32, ptr %12, align 4, !tbaa !10
  %121 = load ptr, ptr %8, align 8, !tbaa !8
  store i32 %120, ptr %121, align 4, !tbaa !10
  %122 = load i32, ptr %10, align 4, !tbaa !10
  store i32 %122, ptr %6, align 4
  store i32 1, ptr %16, align 4
  br label %125

123:                                              ; preds = %116
  br label %124

124:                                              ; preds = %123, %75, %70, %59, %54, %34
  store i32 0, ptr %16, align 4
  br label %125

125:                                              ; preds = %124, %119
  call void @llvm.lifetime.end.p0(i64 1, ptr %15) #3
  call void @llvm.lifetime.end.p0(i64 1, ptr %14) #3
  call void @llvm.lifetime.end.p0(i64 1, ptr %13) #3
  %126 = load i32, ptr %16, align 4
  switch i32 %126, label %304 [
    i32 0, label %127
  ]

127:                                              ; preds = %125
  br label %293

128:                                              ; preds = %31
  %129 = load i32, ptr %10, align 4, !tbaa !10
  %130 = icmp sge i32 %129, 224
  br i1 %130, label %131, label %262

131:                                              ; preds = %128
  %132 = load i32, ptr %10, align 4, !tbaa !10
  %133 = and i32 %132, 15
  store i32 %133, ptr %10, align 4, !tbaa !10
  %134 = load i8, ptr %11, align 1, !tbaa !12
  %135 = sext i8 %134 to i32
  %136 = icmp ne i32 %135, -2
  br i1 %136, label %137, label %209

137:                                              ; preds = %131
  call void @llvm.lifetime.start.p0(i64 1, ptr %17) #3
  %138 = load ptr, ptr %7, align 8, !tbaa !3
  %139 = load i32, ptr %12, align 4, !tbaa !10
  %140 = sext i32 %139 to i64
  %141 = getelementptr inbounds i8, ptr %138, i64 %140
  %142 = load i8, ptr %141, align 1, !tbaa !12
  store i8 %142, ptr %17, align 1, !tbaa !12
  call void @llvm.lifetime.start.p0(i64 1, ptr %18) #3
  %143 = load i32, ptr %10, align 4, !tbaa !10
  %144 = and i32 %143, 15
  %145 = sext i32 %144 to i64
  %146 = getelementptr inbounds [17 x i8], ptr @.str.1, i64 0, i64 %145
  %147 = load i8, ptr %146, align 1, !tbaa !12
  %148 = sext i8 %147 to i32
  %149 = load i8, ptr %17, align 1, !tbaa !12
  %150 = zext i8 %149 to i32
  %151 = ashr i32 %150, 5
  %152 = shl i32 1, %151
  %153 = and i32 %148, %152
  %154 = icmp ne i32 %153, 0
  br i1 %154, label %155, label %205

155:                                              ; preds = %137
  %156 = load i32, ptr %12, align 4, !tbaa !10
  %157 = add nsw i32 %156, 1
  store i32 %157, ptr %12, align 4, !tbaa !10
  %158 = load i32, ptr %9, align 4, !tbaa !10
  %159 = icmp ne i32 %157, %158
  br i1 %159, label %160, label %205

160:                                              ; preds = %155
  %161 = load ptr, ptr %7, align 8, !tbaa !3
  %162 = load i32, ptr %12, align 4, !tbaa !10
  %163 = sext i32 %162 to i64
  %164 = getelementptr inbounds i8, ptr %161, i64 %163
  %165 = load i8, ptr %164, align 1, !tbaa !12
  %166 = zext i8 %165 to i32
  %167 = sub nsw i32 %166, 128
  %168 = trunc i32 %167 to i8
  store i8 %168, ptr %18, align 1, !tbaa !12
  %169 = zext i8 %168 to i32
  %170 = icmp sle i32 %169, 63
  br i1 %170, label %171, label %205

171:                                              ; preds = %160
  %172 = load i32, ptr %12, align 4, !tbaa !10
  %173 = add nsw i32 %172, 1
  store i32 %173, ptr %12, align 4, !tbaa !10
  %174 = load i32, ptr %10, align 4, !tbaa !10
  %175 = shl i32 %174, 12
  %176 = load i8, ptr %17, align 1, !tbaa !12
  %177 = zext i8 %176 to i32
  %178 = and i32 %177, 63
  %179 = shl i32 %178, 6
  %180 = or i32 %175, %179
  %181 = load i8, ptr %18, align 1, !tbaa !12
  %182 = zext i8 %181 to i32
  %183 = or i32 %180, %182
  store i32 %183, ptr %10, align 4, !tbaa !10
  %184 = load i8, ptr %11, align 1, !tbaa !12
  %185 = sext i8 %184 to i32
  %186 = icmp sle i32 %185, 0
  br i1 %186, label %200, label %187

187:                                              ; preds = %171
  %188 = load i32, ptr %10, align 4, !tbaa !10
  %189 = icmp sge i32 %188, 64976
  br i1 %189, label %190, label %200

190:                                              ; preds = %187
  %191 = load i32, ptr %10, align 4, !tbaa !10
  %192 = icmp sle i32 %191, 65007
  br i1 %192, label %197, label %193

193:                                              ; preds = %190
  %194 = load i32, ptr %10, align 4, !tbaa !10
  %195 = and i32 %194, 65534
  %196 = icmp eq i32 %195, 65534
  br i1 %196, label %197, label %200

197:                                              ; preds = %193, %190
  %198 = load i32, ptr %10, align 4, !tbaa !10
  %199 = icmp sle i32 %198, 1114111
  br i1 %199, label %204, label %200

200:                                              ; preds = %197, %193, %187, %171
  %201 = load i32, ptr %12, align 4, !tbaa !10
  %202 = load ptr, ptr %8, align 8, !tbaa !8
  store i32 %201, ptr %202, align 4, !tbaa !10
  %203 = load i32, ptr %10, align 4, !tbaa !10
  store i32 %203, ptr %6, align 4
  store i32 1, ptr %16, align 4
  br label %206

204:                                              ; preds = %197
  br label %205

205:                                              ; preds = %204, %160, %155, %137
  store i32 0, ptr %16, align 4
  br label %206

206:                                              ; preds = %205, %200
  call void @llvm.lifetime.end.p0(i64 1, ptr %18) #3
  call void @llvm.lifetime.end.p0(i64 1, ptr %17) #3
  %207 = load i32, ptr %16, align 4
  switch i32 %207, label %304 [
    i32 0, label %208
  ]

208:                                              ; preds = %206
  br label %261

209:                                              ; preds = %131
  call void @llvm.lifetime.start.p0(i64 1, ptr %19) #3
  %210 = load ptr, ptr %7, align 8, !tbaa !3
  %211 = load i32, ptr %12, align 4, !tbaa !10
  %212 = sext i32 %211 to i64
  %213 = getelementptr inbounds i8, ptr %210, i64 %212
  %214 = load i8, ptr %213, align 1, !tbaa !12
  %215 = zext i8 %214 to i32
  %216 = sub nsw i32 %215, 128
  %217 = trunc i32 %216 to i8
  store i8 %217, ptr %19, align 1, !tbaa !12
  call void @llvm.lifetime.start.p0(i64 1, ptr %20) #3
  %218 = load i8, ptr %19, align 1, !tbaa !12
  %219 = zext i8 %218 to i32
  %220 = icmp sle i32 %219, 63
  br i1 %220, label %221, label %257

221:                                              ; preds = %209
  %222 = load i32, ptr %10, align 4, !tbaa !10
  %223 = icmp sgt i32 %222, 0
  br i1 %223, label %228, label %224

224:                                              ; preds = %221
  %225 = load i8, ptr %19, align 1, !tbaa !12
  %226 = zext i8 %225 to i32
  %227 = icmp sge i32 %226, 32
  br i1 %227, label %228, label %257

228:                                              ; preds = %224, %221
  %229 = load i32, ptr %12, align 4, !tbaa !10
  %230 = add nsw i32 %229, 1
  store i32 %230, ptr %12, align 4, !tbaa !10
  %231 = load i32, ptr %9, align 4, !tbaa !10
  %232 = icmp ne i32 %230, %231
  br i1 %232, label %233, label %257

233:                                              ; preds = %228
  %234 = load ptr, ptr %7, align 8, !tbaa !3
  %235 = load i32, ptr %12, align 4, !tbaa !10
  %236 = sext i32 %235 to i64
  %237 = getelementptr inbounds i8, ptr %234, i64 %236
  %238 = load i8, ptr %237, align 1, !tbaa !12
  %239 = zext i8 %238 to i32
  %240 = sub nsw i32 %239, 128
  %241 = trunc i32 %240 to i8
  store i8 %241, ptr %20, align 1, !tbaa !12
  %242 = zext i8 %241 to i32
  %243 = icmp sle i32 %242, 63
  br i1 %243, label %244, label %257

244:                                              ; preds = %233
  %245 = load i32, ptr %12, align 4, !tbaa !10
  %246 = add nsw i32 %245, 1
  %247 = load ptr, ptr %8, align 8, !tbaa !8
  store i32 %246, ptr %247, align 4, !tbaa !10
  %248 = load i32, ptr %10, align 4, !tbaa !10
  %249 = shl i32 %248, 12
  %250 = load i8, ptr %19, align 1, !tbaa !12
  %251 = zext i8 %250 to i32
  %252 = shl i32 %251, 6
  %253 = or i32 %249, %252
  %254 = load i8, ptr %20, align 1, !tbaa !12
  %255 = zext i8 %254 to i32
  %256 = or i32 %253, %255
  store i32 %256, ptr %6, align 4
  store i32 1, ptr %16, align 4
  br label %258

257:                                              ; preds = %233, %228, %224, %209
  store i32 0, ptr %16, align 4
  br label %258

258:                                              ; preds = %257, %244
  call void @llvm.lifetime.end.p0(i64 1, ptr %20) #3
  call void @llvm.lifetime.end.p0(i64 1, ptr %19) #3
  %259 = load i32, ptr %16, align 4
  switch i32 %259, label %304 [
    i32 0, label %260
  ]

260:                                              ; preds = %258
  br label %261

261:                                              ; preds = %260, %208
  br label %292

262:                                              ; preds = %128
  %263 = load i32, ptr %10, align 4, !tbaa !10
  %264 = icmp sge i32 %263, 194
  br i1 %264, label %265, label %291

265:                                              ; preds = %262
  call void @llvm.lifetime.start.p0(i64 1, ptr %21) #3
  %266 = load ptr, ptr %7, align 8, !tbaa !3
  %267 = load i32, ptr %12, align 4, !tbaa !10
  %268 = sext i32 %267 to i64
  %269 = getelementptr inbounds i8, ptr %266, i64 %268
  %270 = load i8, ptr %269, align 1, !tbaa !12
  %271 = zext i8 %270 to i32
  %272 = sub nsw i32 %271, 128
  %273 = trunc i32 %272 to i8
  store i8 %273, ptr %21, align 1, !tbaa !12
  %274 = load i8, ptr %21, align 1, !tbaa !12
  %275 = zext i8 %274 to i32
  %276 = icmp sle i32 %275, 63
  br i1 %276, label %277, label %287

277:                                              ; preds = %265
  %278 = load i32, ptr %12, align 4, !tbaa !10
  %279 = add nsw i32 %278, 1
  %280 = load ptr, ptr %8, align 8, !tbaa !8
  store i32 %279, ptr %280, align 4, !tbaa !10
  %281 = load i32, ptr %10, align 4, !tbaa !10
  %282 = sub nsw i32 %281, 192
  %283 = shl i32 %282, 6
  %284 = load i8, ptr %21, align 1, !tbaa !12
  %285 = zext i8 %284 to i32
  %286 = or i32 %283, %285
  store i32 %286, ptr %6, align 4
  store i32 1, ptr %16, align 4
  br label %288

287:                                              ; preds = %265
  store i32 0, ptr %16, align 4
  br label %288

288:                                              ; preds = %287, %277
  call void @llvm.lifetime.end.p0(i64 1, ptr %21) #3
  %289 = load i32, ptr %16, align 4
  switch i32 %289, label %304 [
    i32 0, label %290
  ]

290:                                              ; preds = %288
  br label %291

291:                                              ; preds = %290, %262
  br label %292

292:                                              ; preds = %291, %261
  br label %293

293:                                              ; preds = %292, %127
  br label %294

294:                                              ; preds = %293, %30
  %295 = load i32, ptr %12, align 4, !tbaa !10
  %296 = load ptr, ptr %8, align 8, !tbaa !8
  %297 = load i32, ptr %296, align 4, !tbaa !10
  %298 = sub nsw i32 %295, %297
  %299 = load i8, ptr %11, align 1, !tbaa !12
  %300 = call noundef i32 @_ZL10errorValueia(i32 noundef %298, i8 noundef signext %299)
  store i32 %300, ptr %10, align 4, !tbaa !10
  %301 = load i32, ptr %12, align 4, !tbaa !10
  %302 = load ptr, ptr %8, align 8, !tbaa !8
  store i32 %301, ptr %302, align 4, !tbaa !10
  %303 = load i32, ptr %10, align 4, !tbaa !10
  store i32 %303, ptr %6, align 4
  store i32 1, ptr %16, align 4
  br label %304

304:                                              ; preds = %294, %288, %258, %206, %125
  call void @llvm.lifetime.end.p0(i64 4, ptr %12) #3
  %305 = load i32, ptr %6, align 4
  ret i32 %305
}