; Function Attrs: mustprogress nofree norecurse nosync nounwind willreturn memory(argmem: readwrite) uwtable
define i32 @utf8_nextCharSafeBody_77(ptr noundef readonly captures(none) %0, ptr noundef captures(none) %1, i32 noundef %2, i32 noundef %3, i8 noundef signext %4) local_unnamed_addr #0 {
  %6 = load i32, ptr %1, align 4, !tbaa !3
  %7 = icmp eq i32 %6, %2
  %8 = icmp sgt i32 %3, 244
  %or.cond = or i1 %8, %7
  br i1 %or.cond, label %.thread, label %9

9:                                                ; preds = %5
  %10 = icmp sgt i32 %3, 239
  br i1 %10, label %11, label %60

11:                                               ; preds = %9
  %12 = sext i32 %6 to i64
  %13 = getelementptr inbounds i8, ptr %0, i64 %12
  %14 = load i8, ptr %13, align 1, !tbaa !7
  %15 = and i32 %3, 7
  %16 = zext i8 %14 to i32
  %17 = lshr i32 %16, 4
  %18 = zext nneg i32 %17 to i64
  %19 = getelementptr inbounds nuw [17 x i8], ptr @.str, i64 0, i64 %18
  %20 = load i8, ptr %19, align 1, !tbaa !7
  %21 = zext i8 %20 to i32
  %22 = shl nuw nsw i32 1, %15
  %23 = and i32 %22, %21
  %.not138 = icmp eq i32 %23, 0
  br i1 %.not138, label %.thread, label %24

24:                                               ; preds = %11
  %25 = add nsw i32 %6, 1
  %.not139 = icmp eq i32 %25, %2
  br i1 %.not139, label %.thread, label %26

26:                                               ; preds = %24
  %27 = sext i32 %25 to i64
  %28 = getelementptr inbounds i8, ptr %0, i64 %27
  %29 = load i8, ptr %28, align 1, !tbaa !7
  %30 = xor i8 %29, -128
  %31 = zext i8 %30 to i32
  %32 = icmp ult i8 %30, 64
  br i1 %32, label %33, label %.thread

33:                                               ; preds = %26
  %34 = add nsw i32 %6, 2
  %.not140 = icmp eq i32 %34, %2
  br i1 %.not140, label %.thread, label %35

35:                                               ; preds = %33
  %36 = sext i32 %34 to i64
  %37 = getelementptr inbounds i8, ptr %0, i64 %36
  %38 = load i8, ptr %37, align 1, !tbaa !7
  %39 = xor i8 %38, -128
  %40 = icmp ult i8 %39, 64
  br i1 %40, label %41, label %.thread

41:                                               ; preds = %35
  %42 = zext nneg i8 %39 to i32
  %43 = add nsw i32 %6, 3
  %44 = shl nuw nsw i32 %15, 18
  %45 = shl nuw nsw i32 %16, 12
  %46 = and i32 %45, 258048
  %47 = or disjoint i32 %46, %44
  %48 = shl nuw nsw i32 %31, 6
  %49 = or disjoint i32 %48, %42
  %50 = or disjoint i32 %49, %47
  %51 = icmp sgt i8 %4, 0
  %52 = icmp samesign ugt i32 %50, 64975
  %or.cond6 = select i1 %51, i1 %52, i1 false
  br i1 %or.cond6, label %53, label %59

53:                                               ; preds = %41
  %54 = icmp samesign ult i32 %50, 65008
  br i1 %54, label %.thread.thread, label %55

55:                                               ; preds = %53
  %56 = and i32 %50, 65534
  %57 = icmp eq i32 %56, 65534
  %58 = icmp samesign ult i32 %47, 1114112
  %or.cond8 = select i1 %57, i1 %58, i1 false
  br i1 %or.cond8, label %.thread.thread, label %59

59:                                               ; preds = %41, %55
  store i32 %43, ptr %1, align 4, !tbaa !3
  br label %141

60:                                               ; preds = %9
  %61 = icmp sgt i32 %3, 223
  br i1 %61, label %62, label %121

62:                                               ; preds = %60
  %63 = and i32 %3, 15
  %.not = icmp eq i8 %4, -2
  %64 = sext i32 %6 to i64
  %65 = getelementptr inbounds i8, ptr %0, i64 %64
  %66 = load i8, ptr %65, align 1, !tbaa !7
  br i1 %.not, label %99, label %67

67:                                               ; preds = %62
  %68 = zext nneg i32 %63 to i64
  %69 = getelementptr inbounds nuw [17 x i8], ptr @.str.1, i64 0, i64 %68
  %70 = load i8, ptr %69, align 1, !tbaa !7
  %71 = zext i8 %70 to i32
  %72 = zext i8 %66 to i32
  %73 = lshr i32 %72, 5
  %74 = shl nuw nsw i32 1, %73
  %75 = and i32 %74, %71
  %.not136 = icmp eq i32 %75, 0
  br i1 %.not136, label %.thread, label %76

76:                                               ; preds = %67
  %77 = add nsw i32 %6, 1
  %.not137 = icmp eq i32 %77, %2
  br i1 %.not137, label %.thread, label %78

78:                                               ; preds = %76
  %79 = sext i32 %77 to i64
  %80 = getelementptr inbounds i8, ptr %0, i64 %79
  %81 = load i8, ptr %80, align 1, !tbaa !7
  %82 = xor i8 %81, -128
  %83 = icmp ult i8 %82, 64
  br i1 %83, label %84, label %.thread

84:                                               ; preds = %78
  %85 = zext nneg i8 %82 to i32
  %86 = add nsw i32 %6, 2
  %87 = shl nuw nsw i32 %63, 12
  %88 = shl nuw nsw i32 %72, 6
  %89 = and i32 %88, 4032
  %90 = or disjoint i32 %89, %87
  %91 = or disjoint i32 %90, %85
  %92 = icmp sgt i8 %4, 0
  %93 = icmp samesign ugt i32 %91, 64975
  %or.cond11 = select i1 %92, i1 %93, i1 false
  br i1 %or.cond11, label %94, label %98

94:                                               ; preds = %84
  %95 = icmp samesign ult i32 %91, 65008
  %96 = and i32 %91, 65534
  %97 = icmp eq i32 %96, 65534
  %or.cond142 = or i1 %95, %97
  br i1 %or.cond142, label %.thread.thread, label %98

98:                                               ; preds = %84, %94
  store i32 %86, ptr %1, align 4, !tbaa !3
  br label %141

99:                                               ; preds = %62
  %100 = xor i8 %66, -128
  %101 = zext i8 %100 to i32
  %102 = icmp ult i8 %100, 64
  br i1 %102, label %103, label %.thread158

103:                                              ; preds = %99
  %104 = icmp ne i32 %63, 0
  %105 = icmp samesign ugt i8 %100, 31
  %or.cond18 = or i1 %104, %105
  br i1 %or.cond18, label %106, label %.thread158

106:                                              ; preds = %103
  %107 = add nsw i32 %6, 1
  %.not135 = icmp eq i32 %107, %2
  br i1 %.not135, label %.thread158, label %108

108:                                              ; preds = %106
  %109 = sext i32 %107 to i64
  %110 = getelementptr inbounds i8, ptr %0, i64 %109
  %111 = load i8, ptr %110, align 1, !tbaa !7
  %112 = xor i8 %111, -128
  %113 = icmp ult i8 %112, 64
  br i1 %113, label %114, label %.thread158

114:                                              ; preds = %108
  %115 = zext nneg i8 %112 to i32
  %116 = add nsw i32 %6, 2
  store i32 %116, ptr %1, align 4, !tbaa !3
  %117 = shl nuw nsw i32 %63, 12
  %118 = shl nuw nsw i32 %101, 6
  %119 = or disjoint i32 %118, %117
  %120 = or disjoint i32 %119, %115
  br label %141

121:                                              ; preds = %60
  %122 = icmp sgt i32 %3, 193
  br i1 %122, label %123, label %.thread

123:                                              ; preds = %121
  %124 = sext i32 %6 to i64
  %125 = getelementptr inbounds i8, ptr %0, i64 %124
  %126 = load i8, ptr %125, align 1, !tbaa !7
  %127 = xor i8 %126, -128
  %128 = icmp ugt i8 %127, 63
  br i1 %128, label %.thread, label %129

129:                                              ; preds = %123
  %130 = zext nneg i8 %127 to i32
  %131 = add nsw i32 %6, 1
  store i32 %131, ptr %1, align 4, !tbaa !3
  %132 = shl nuw nsw i32 %3, 6
  %133 = add nsw i32 %132, -12288
  %134 = or disjoint i32 %133, %130
  br label %141

.thread:                                          ; preds = %123, %67, %76, %78, %11, %24, %26, %33, %35, %121, %5
  %.0106 = phi i32 [ %6, %5 ], [ %6, %121 ], [ %6, %11 ], [ %2, %24 ], [ %25, %26 ], [ %2, %33 ], [ %34, %35 ], [ %6, %67 ], [ %2, %76 ], [ %77, %78 ], [ %6, %123 ]
  %135 = icmp sgt i8 %4, -1
  br i1 %135, label %.thread.thread, label %.thread158

.thread.thread:                                   ; preds = %53, %55, %94, %.thread
  %.0106163 = phi i32 [ %.0106, %.thread ], [ %86, %94 ], [ %43, %55 ], [ %43, %53 ]
  %136 = sub nsw i32 %.0106163, %6
  %137 = sext i32 %136 to i64
  %138 = getelementptr inbounds [6 x i32], ptr @_ZL15utf8_errorValue, i64 0, i64 %137
  %139 = load i32, ptr %138, align 4, !tbaa !3
  br label %_ZL10errorValueia.exit

.thread158:                                       ; preds = %103, %108, %106, %99, %.thread
  %.0106161 = phi i32 [ %.0106, %.thread ], [ %6, %99 ], [ %6, %103 ], [ %2, %106 ], [ %107, %108 ]
  %140 = icmp eq i8 %4, -3
  %..i = select i1 %140, i32 65533, i32 -1
  br label %_ZL10errorValueia.exit

_ZL10errorValueia.exit:                           ; preds = %.thread.thread, %.thread158
  %.0106160 = phi i32 [ %.0106163, %.thread.thread ], [ %.0106161, %.thread158 ]
  %.0.i = phi i32 [ %139, %.thread.thread ], [ %..i, %.thread158 ]
  store i32 %.0106160, ptr %1, align 4, !tbaa !3
  br label %141

141:                                              ; preds = %129, %114, %98, %59, %_ZL10errorValueia.exit
  %.1 = phi i32 [ %.0.i, %_ZL10errorValueia.exit ], [ %50, %59 ], [ %91, %98 ], [ %120, %114 ], [ %134, %129 ]
  ret i32 %.1
}